target datalayout = "e-m:e-p270:32:32-p271:32:32-p272:64:64-i64:64-i128:128-f80:128-n8:16:32:64-S128"
target triple = "x86_64-unknown-linux-gnu"

; Function Attrs: mustprogress nounwind uwtable
define hidden noundef i64 @_ZN18OpenImageIO_v2_6_08IffInput22uncompress_rle_channelEPKhPhi(ptr noundef nonnull align 8 dereferenceable(352) %this, ptr noundef %in, ptr noundef %out, i32 noundef %size) #4 align 2 {
entry:
  %this.addr = alloca ptr, align 8
  %in.addr = alloca ptr, align 8
  %out.addr = alloca ptr, align 8
  %size.addr = alloca i32, align 4
  %_in = alloca ptr, align 8
  %end = alloca ptr, align 8
  %count = alloca i8, align 1
  %run = alloca i8, align 1
  %i = alloca i32, align 4
  %p = alloca i8, align 1
  %i11 = alloca i32, align 4
  %r = alloca i64, align 8
  store ptr %this, ptr %this.addr, align 8
  store ptr %in, ptr %in.addr, align 8
  store ptr %out, ptr %out.addr, align 8
  store i32 %size, ptr %size.addr, align 4
  %0 = load ptr, ptr %in.addr, align 8
  store ptr %0, ptr %_in, align 8
  %1 = load ptr, ptr %out.addr, align 8
  %2 = load i32, ptr %size.addr, align 4
  %idx.ext = sext i32 %2 to i64
  %add.ptr = getelementptr inbounds i8, ptr %1, i64 %idx.ext
  store ptr %add.ptr, ptr %end, align 8
  br label %while.cond

while.cond:                                       ; preds = %if.end, %entry
  %3 = load ptr, ptr %out.addr, align 8
  %4 = load ptr, ptr %end, align 8
  %cmp = icmp ult ptr %3, %4
  br i1 %cmp, label %while.body, label %while.end

while.body:                                       ; preds = %while.cond
  %5 = load ptr, ptr %in.addr, align 8
  %6 = load i8, ptr %5, align 1
  %conv = zext i8 %6 to i32
  %and = and i32 %conv, 127
  %add = add nsw i32 %and, 1
  %conv2 = trunc i32 %add to i8
  store i8 %conv2, ptr %count, align 1
  %7 = load ptr, ptr %in.addr, align 8
  %8 = load i8, ptr %7, align 1
  %conv3 = zext i8 %8 to i32
  %and4 = and i32 %conv3, 128
  %tobool = icmp ne i32 %and4, 0
  %cond = select i1 %tobool, i1 true, i1 false
  %frombool = zext i1 %cond to i8
  store i8 %frombool, ptr %run, align 1
  %9 = load ptr, ptr %in.addr, align 8
  %incdec.ptr = getelementptr inbounds i8, ptr %9, i32 1
  store ptr %incdec.ptr, ptr %in.addr, align 8
  %10 = load i8, ptr %run, align 1
  %tobool5 = trunc i8 %10 to i1
  br i1 %tobool5, label %if.else, label %if.then

if.then:                                          ; preds = %while.body
  store i32 0, ptr %i, align 4
  br label %for.cond

for.cond:                                         ; preds = %for.inc, %if.then
  %11 = load i32, ptr %i, align 4
  %12 = load i8, ptr %count, align 1
  %conv6 = zext i8 %12 to i32
  %cmp7 = icmp slt i32 %11, %conv6
  br i1 %cmp7, label %for.body, label %for.end

for.body:                                         ; preds = %for.cond
  %13 = load ptr, ptr %in.addr, align 8
  %incdec.ptr8 = getelementptr inbounds i8, ptr %13, i32 1
  store ptr %incdec.ptr8, ptr %in.addr, align 8
  %14 = load i8, ptr %13, align 1
  %15 = load ptr, ptr %out.addr, align 8
  %incdec.ptr9 = getelementptr inbounds i8, ptr %15, i32 1
  store ptr %incdec.ptr9, ptr %out.addr, align 8
  store i8 %14, ptr %15, align 1
  br label %for.inc

for.inc:                                          ; preds = %for.body
  %16 = load i32, ptr %i, align 4
  %inc = add nsw i32 %16, 1
  store i32 %inc, ptr %i, align 4
  br label %for.cond, !llvm.loop !24

for.end:                                          ; preds = %for.cond
  br label %if.end

if.else:                                          ; preds = %while.body
  %17 = load ptr, ptr %in.addr, align 8
  %incdec.ptr10 = getelementptr inbounds i8, ptr %17, i32 1
  store ptr %incdec.ptr10, ptr %in.addr, align 8
  %18 = load i8, ptr %17, align 1
  store i8 %18, ptr %p, align 1
  store i32 0, ptr %i11, align 4
  br label %for.cond12

for.cond12:                                       ; preds = %for.inc17, %if.else
  %19 = load i32, ptr %i11, align 4
  %20 = load i8, ptr %count, align 1
  %conv13 = zext i8 %20 to i32
  %cmp14 = icmp slt i32 %19, %conv13
  br i1 %cmp14, label %for.body15, label %for.end19

for.body15:                                       ; preds = %for.cond12
  %21 = load i8, ptr %p, align 1
  %22 = load ptr, ptr %out.addr, align 8
  %incdec.ptr16 = getelementptr inbounds i8, ptr %22, i32 1
  store ptr %incdec.ptr16, ptr %out.addr, align 8
  store i8 %21, ptr %22, align 1
  br label %for.inc17

for.inc17:                                        ; preds = %for.body15
  %23 = load i32, ptr %i11, align 4
  %inc18 = add nsw i32 %23, 1
  store i32 %inc18, ptr %i11, align 4
  br label %for.cond12, !llvm.loop !25

for.end19:                                        ; preds = %for.cond12
  br label %if.end

if.end:                                           ; preds = %for.end19, %for.end
  br label %while.cond, !llvm.loop !26

while.end:                                        ; preds = %while.cond
  %24 = load ptr, ptr %in.addr, align 8
  %25 = load ptr, ptr %_in, align 8
  %sub.ptr.lhs.cast = ptrtoint ptr %24 to i64
  %sub.ptr.rhs.cast = ptrtoint ptr %25 to i64
  %sub.ptr.sub = sub i64 %sub.ptr.lhs.cast, %sub.ptr.rhs.cast
  store i64 %sub.ptr.sub, ptr %r, align 8
  %26 = load i64, ptr %r, align 8
  ret i64 %26
}