; Function Attrs: mustprogress nofree norecurse nosync nounwind memory(readwrite, inaccessiblemem: none) uwtable
define hidden noundef i64 @_ZN18OpenImageIO_v2_6_08IffInput22uncompress_rle_channelEPKhPhi(ptr nocapture noundef nonnull readnone align 8 dereferenceable(352) %this, ptr noundef %in, ptr noundef writeonly %out, i32 noundef %size) local_unnamed_addr #8 align 2 {
entry:
  %idx.ext = sext i32 %size to i64
  %add.ptr = getelementptr inbounds i8, ptr %out, i64 %idx.ext
  %cmp19 = icmp sgt i32 %size, 0
  br i1 %cmp19, label %while.body, label %while.end

while.body:                                       ; preds = %entry, %if.end
  %in.addr.021 = phi ptr [ %in.addr.2, %if.end ], [ %in, %entry ]
  %out.addr.020 = phi ptr [ %out.addr.3, %if.end ], [ %out, %entry ]
  %0 = load i8, ptr %in.addr.021, align 1
  %tobool.not = icmp sgt i8 %0, -1
  %incdec.ptr = getelementptr i8, ptr %in.addr.021, i64 1
  br i1 %tobool.not, label %for.cond.preheader, label %if.else

for.cond.preheader:                               ; preds = %while.body
  %add = add nuw i8 %0, 1
  %conv6 = zext i8 %add to i32
  br label %for.body

for.body:                                         ; preds = %for.cond.preheader, %for.body
  %in.addr.118 = phi ptr [ %incdec.ptr, %for.cond.preheader ], [ %incdec.ptr8, %for.body ]
  %out.addr.117 = phi ptr [ %out.addr.020, %for.cond.preheader ], [ %incdec.ptr9, %for.body ]
  %i.016 = phi i32 [ 0, %for.cond.preheader ], [ %inc, %for.body ]
  %incdec.ptr8 = getelementptr inbounds i8, ptr %in.addr.118, i64 1
  %1 = load i8, ptr %in.addr.118, align 1
  %incdec.ptr9 = getelementptr inbounds i8, ptr %out.addr.117, i64 1
  store i8 %1, ptr %out.addr.117, align 1
  %inc = add nuw nsw i32 %i.016, 1
  %exitcond.not = icmp eq i32 %inc, %conv6
  br i1 %exitcond.not, label %if.end, label %for.body, !llvm.loop !21

if.else:                                          ; preds = %while.body
  %2 = load i8, ptr %incdec.ptr, align 1
  %3 = and i8 %0, 127
  %4 = zext nneg i8 %3 to i64
  %5 = add nuw nsw i64 %4, 1
  tail call void @llvm.memset.p0.i64(ptr noundef nonnull align 1 dereferenceable(1) %out.addr.020, i8 %2, i64 %5, i1 false)
  %incdec.ptr10 = getelementptr inbounds i8, ptr %in.addr.021, i64 2
  %scevgep = getelementptr i8, ptr %out.addr.020, i64 1
  %scevgep23 = getelementptr i8, ptr %scevgep, i64 %4
  br label %if.end

if.end:                                           ; preds = %for.body, %if.else
  %out.addr.3 = phi ptr [ %scevgep23, %if.else ], [ %incdec.ptr9, %for.body ]
  %in.addr.2 = phi ptr [ %incdec.ptr10, %if.else ], [ %incdec.ptr8, %for.body ]
  %cmp = icmp ult ptr %out.addr.3, %add.ptr
  br i1 %cmp, label %while.body, label %while.end, !llvm.loop !22

while.end:                                        ; preds = %if.end, %entry
  %in.addr.0.lcssa = phi ptr [ %in, %entry ], [ %in.addr.2, %if.end ]
  %sub.ptr.lhs.cast = ptrtoint ptr %in.addr.0.lcssa to i64
  %sub.ptr.rhs.cast = ptrtoint ptr %in to i64
  %sub.ptr.sub = sub i64 %sub.ptr.lhs.cast, %sub.ptr.rhs.cast
  ret i64 %sub.ptr.sub
}